target datalayout = "e-m:e-p270:32:32-p271:32:32-p272:64:64-i64:64-i128:128-f80:128-n8:16:32:64-S128"
target triple = "x86_64-pc-linux-gnu"

%struct._lv_draw_sw_mask_common_dsc_t = type { ptr, i32 }
%struct.lv_area_t = type { i32, i32, i32, i32 }
%struct._lv_draw_sw_mask_fade_param_t = type { %struct._lv_draw_sw_mask_common_dsc_t, %struct.anon.2 }
%struct.anon.2 = type { %struct.lv_area_t, i32, i32, i8, i8 }

; Function Attrs: inlinehint nounwind uwtable
define internal zeroext i8 @mask_mix(i8 noundef zeroext %0, i8 noundef zeroext %1) #3 {
  %3 = alloca i8, align 1
  %4 = alloca i8, align 1
  %5 = alloca i8, align 1
  store i8 %0, ptr %4, align 1, !tbaa !26
  store i8 %1, ptr %5, align 1, !tbaa !26
  %6 = load i8, ptr %5, align 1, !tbaa !26
  %7 = zext i8 %6 to i32
  %8 = icmp sge i32 %7, 253
  br i1 %8, label %9, label %11

9:                                                ; preds = %2
  %10 = load i8, ptr %4, align 1, !tbaa !26
  store i8 %10, ptr %3, align 1
  br label %25

11:                                               ; preds = %2
  %12 = load i8, ptr %5, align 1, !tbaa !26
  %13 = zext i8 %12 to i32
  %14 = icmp sle i32 %13, 2
  br i1 %14, label %15, label %16

15:                                               ; preds = %11
  store i8 0, ptr %3, align 1
  br label %25

16:                                               ; preds = %11
  %17 = load i8, ptr %4, align 1, !tbaa !26
  %18 = zext i8 %17 to i32
  %19 = load i8, ptr %5, align 1, !tbaa !26
  %20 = zext i8 %19 to i32
  %21 = mul nsw i32 %18, %20
  %22 = mul i32 %21, 32897
  %23 = lshr i32 %22, 23
  %24 = trunc i32 %23 to i8
  store i8 %24, ptr %3, align 1
  br label %25

25:                                               ; preds = %16, %15, %9
  %26 = load i8, ptr %3, align 1
  ret i8 %26
}

; Function Attrs: nounwind uwtable
define internal i32 @lv_draw_mask_fade(ptr noundef %0, i32 noundef %1, i32 noundef %2, i32 noundef %3, ptr noundef %4) #0 {
  %6 = alloca i32, align 4
  %7 = alloca ptr, align 8
  %8 = alloca i32, align 4
  %9 = alloca i32, align 4
  %10 = alloca i32, align 4
  %11 = alloca ptr, align 8
  %12 = alloca i32, align 4
  %13 = alloca i32, align 4
  %14 = alloca i32, align 4
  %15 = alloca i16, align 2
  %16 = alloca i32, align 4
  %17 = alloca i8, align 1
  store ptr %0, ptr %7, align 8, !tbaa !3
  store i32 %1, ptr %8, align 4, !tbaa !7
  store i32 %2, ptr %9, align 4, !tbaa !7
  store i32 %3, ptr %10, align 4, !tbaa !7
  store ptr %4, ptr %11, align 8, !tbaa !3
  %18 = load i32, ptr %9, align 4, !tbaa !7
  %19 = load ptr, ptr %11, align 8, !tbaa !3
  %20 = getelementptr inbounds nuw %struct._lv_draw_sw_mask_fade_param_t, ptr %19, i32 0, i32 1
  %21 = getelementptr inbounds nuw %struct.anon.2, ptr %20, i32 0, i32 0
  %22 = getelementptr inbounds nuw %struct.lv_area_t, ptr %21, i32 0, i32 1
  %23 = load i32, ptr %22, align 4, !tbaa !83
  %24 = icmp slt i32 %18, %23
  br i1 %24, label %25, label %26

25:                                               ; preds = %5
  store i32 1, ptr %6, align 4
  br label %229

26:                                               ; preds = %5
  %27 = load i32, ptr %9, align 4, !tbaa !7
  %28 = load ptr, ptr %11, align 8, !tbaa !3
  %29 = getelementptr inbounds nuw %struct._lv_draw_sw_mask_fade_param_t, ptr %28, i32 0, i32 1
  %30 = getelementptr inbounds nuw %struct.anon.2, ptr %29, i32 0, i32 0
  %31 = getelementptr inbounds nuw %struct.lv_area_t, ptr %30, i32 0, i32 3
  %32 = load i32, ptr %31, align 4, !tbaa !84
  %33 = icmp sgt i32 %27, %32
  br i1 %33, label %34, label %35

34:                                               ; preds = %26
  store i32 1, ptr %6, align 4
  br label %229

35:                                               ; preds = %26
  %36 = load i32, ptr %8, align 4, !tbaa !7
  %37 = load i32, ptr %10, align 4, !tbaa !7
  %38 = add nsw i32 %36, %37
  %39 = load ptr, ptr %11, align 8, !tbaa !3
  %40 = getelementptr inbounds nuw %struct._lv_draw_sw_mask_fade_param_t, ptr %39, i32 0, i32 1
  %41 = getelementptr inbounds nuw %struct.anon.2, ptr %40, i32 0, i32 0
  %42 = getelementptr inbounds nuw %struct.lv_area_t, ptr %41, i32 0, i32 0
  %43 = load i32, ptr %42, align 8, !tbaa !85
  %44 = icmp slt i32 %38, %43
  br i1 %44, label %45, label %46

45:                                               ; preds = %35
  store i32 1, ptr %6, align 4
  br label %229

46:                                               ; preds = %35
  %47 = load i32, ptr %8, align 4, !tbaa !7
  %48 = load ptr, ptr %11, align 8, !tbaa !3
  %49 = getelementptr inbounds nuw %struct._lv_draw_sw_mask_fade_param_t, ptr %48, i32 0, i32 1
  %50 = getelementptr inbounds nuw %struct.anon.2, ptr %49, i32 0, i32 0
  %51 = getelementptr inbounds nuw %struct.lv_area_t, ptr %50, i32 0, i32 2
  %52 = load i32, ptr %51, align 8, !tbaa !86
  %53 = icmp sgt i32 %47, %52
  br i1 %53, label %54, label %55

54:                                               ; preds = %46
  store i32 1, ptr %6, align 4
  br label %229

55:                                               ; preds = %46
  %56 = load i32, ptr %8, align 4, !tbaa !7
  %57 = load i32, ptr %10, align 4, !tbaa !7
  %58 = add nsw i32 %56, %57
  %59 = load ptr, ptr %11, align 8, !tbaa !3
  %60 = getelementptr inbounds nuw %struct._lv_draw_sw_mask_fade_param_t, ptr %59, i32 0, i32 1
  %61 = getelementptr inbounds nuw %struct.anon.2, ptr %60, i32 0, i32 0
  %62 = getelementptr inbounds nuw %struct.lv_area_t, ptr %61, i32 0, i32 2
  %63 = load i32, ptr %62, align 8, !tbaa !86
  %64 = icmp sgt i32 %58, %63
  br i1 %64, label %65, label %78

65:                                               ; preds = %55
  %66 = load i32, ptr %8, align 4, !tbaa !7
  %67 = load i32, ptr %10, align 4, !tbaa !7
  %68 = add nsw i32 %66, %67
  %69 = load ptr, ptr %11, align 8, !tbaa !3
  %70 = getelementptr inbounds nuw %struct._lv_draw_sw_mask_fade_param_t, ptr %69, i32 0, i32 1
  %71 = getelementptr inbounds nuw %struct.anon.2, ptr %70, i32 0, i32 0
  %72 = getelementptr inbounds nuw %struct.lv_area_t, ptr %71, i32 0, i32 2
  %73 = load i32, ptr %72, align 8, !tbaa !86
  %74 = sub nsw i32 %68, %73
  %75 = sub nsw i32 %74, 1
  %76 = load i32, ptr %10, align 4, !tbaa !7
  %77 = sub nsw i32 %76, %75
  store i32 %77, ptr %10, align 4, !tbaa !7
  br label %78

78:                                               ; preds = %65, %55
  %79 = load i32, ptr %8, align 4, !tbaa !7
  %80 = load ptr, ptr %11, align 8, !tbaa !3
  %81 = getelementptr inbounds nuw %struct._lv_draw_sw_mask_fade_param_t, ptr %80, i32 0, i32 1
  %82 = getelementptr inbounds nuw %struct.anon.2, ptr %81, i32 0, i32 0
  %83 = getelementptr inbounds nuw %struct.lv_area_t, ptr %82, i32 0, i32 0
  %84 = load i32, ptr %83, align 8, !tbaa !85
  %85 = icmp slt i32 %79, %84
  br i1 %85, label %86, label %101

86:                                               ; preds = %78
  call void @llvm.lifetime.start.p0(i64 4, ptr %12) #4
  store i32 0, ptr %12, align 4, !tbaa !7
  %87 = load ptr, ptr %11, align 8, !tbaa !3
  %88 = getelementptr inbounds nuw %struct._lv_draw_sw_mask_fade_param_t, ptr %87, i32 0, i32 1
  %89 = getelementptr inbounds nuw %struct.anon.2, ptr %88, i32 0, i32 0
  %90 = getelementptr inbounds nuw %struct.lv_area_t, ptr %89, i32 0, i32 0
  %91 = load i32, ptr %90, align 8, !tbaa !85
  %92 = load i32, ptr %8, align 4, !tbaa !7
  %93 = sub nsw i32 %91, %92
  store i32 %93, ptr %12, align 4, !tbaa !7
  %94 = load i32, ptr %12, align 4, !tbaa !7
  %95 = load i32, ptr %10, align 4, !tbaa !7
  %96 = sub nsw i32 %95, %94
  store i32 %96, ptr %10, align 4, !tbaa !7
  %97 = load i32, ptr %12, align 4, !tbaa !7
  %98 = load ptr, ptr %7, align 8, !tbaa !3
  %99 = sext i32 %97 to i64
  %100 = getelementptr inbounds i8, ptr %98, i64 %99
  store ptr %100, ptr %7, align 8, !tbaa !3
  call void @llvm.lifetime.end.p0(i64 4, ptr %12) #4
  br label %101

101:                                              ; preds = %86, %78
  call void @llvm.lifetime.start.p0(i64 4, ptr %13) #4
  %102 = load i32, ptr %9, align 4, !tbaa !7
  %103 = load ptr, ptr %11, align 8, !tbaa !3
  %104 = getelementptr inbounds nuw %struct._lv_draw_sw_mask_fade_param_t, ptr %103, i32 0, i32 1
  %105 = getelementptr inbounds nuw %struct.anon.2, ptr %104, i32 0, i32 1
  %106 = load i32, ptr %105, align 8, !tbaa !79
  %107 = icmp sle i32 %102, %106
  br i1 %107, label %108, label %132

108:                                              ; preds = %101
  store i32 0, ptr %13, align 4, !tbaa !7
  br label %109

109:                                              ; preds = %128, %108
  %110 = load i32, ptr %13, align 4, !tbaa !7
  %111 = load i32, ptr %10, align 4, !tbaa !7
  %112 = icmp slt i32 %110, %111
  br i1 %112, label %113, label %131

113:                                              ; preds = %109
  %114 = load ptr, ptr %7, align 8, !tbaa !3
  %115 = load i32, ptr %13, align 4, !tbaa !7
  %116 = sext i32 %115 to i64
  %117 = getelementptr inbounds i8, ptr %114, i64 %116
  %118 = load i8, ptr %117, align 1, !tbaa !26
  %119 = load ptr, ptr %11, align 8, !tbaa !3
  %120 = getelementptr inbounds nuw %struct._lv_draw_sw_mask_fade_param_t, ptr %119, i32 0, i32 1
  %121 = getelementptr inbounds nuw %struct.anon.2, ptr %120, i32 0, i32 3
  %122 = load i8, ptr %121, align 8, !tbaa !75
  %123 = call zeroext i8 @mask_mix(i8 noundef zeroext %118, i8 noundef zeroext %122)
  %124 = load ptr, ptr %7, align 8, !tbaa !3
  %125 = load i32, ptr %13, align 4, !tbaa !7
  %126 = sext i32 %125 to i64
  %127 = getelementptr inbounds i8, ptr %124, i64 %126
  store i8 %123, ptr %127, align 1, !tbaa !26
  br label %128

128:                                              ; preds = %113
  %129 = load i32, ptr %13, align 4, !tbaa !7
  %130 = add nsw i32 %129, 1
  store i32 %130, ptr %13, align 4, !tbaa !7
  br label %109, !llvm.loop !87

131:                                              ; preds = %109
  store i32 2, ptr %6, align 4
  store i32 1, ptr %14, align 4
  br label %228

132:                                              ; preds = %101
  %133 = load i32, ptr %9, align 4, !tbaa !7
  %134 = load ptr, ptr %11, align 8, !tbaa !3
  %135 = getelementptr inbounds nuw %struct._lv_draw_sw_mask_fade_param_t, ptr %134, i32 0, i32 1
  %136 = getelementptr inbounds nuw %struct.anon.2, ptr %135, i32 0, i32 2
  %137 = load i32, ptr %136, align 4, !tbaa !80
  %138 = icmp sge i32 %133, %137
  br i1 %138, label %139, label %163

139:                                              ; preds = %132
  store i32 0, ptr %13, align 4, !tbaa !7
  br label %140

140:                                              ; preds = %159, %139
  %141 = load i32, ptr %13, align 4, !tbaa !7
  %142 = load i32, ptr %10, align 4, !tbaa !7
  %143 = icmp slt i32 %141, %142
  br i1 %143, label %144, label %162

144:                                              ; preds = %140
  %145 = load ptr, ptr %7, align 8, !tbaa !3
  %146 = load i32, ptr %13, align 4, !tbaa !7
  %147 = sext i32 %146 to i64
  %148 = getelementptr inbounds i8, ptr %145, i64 %147
  %149 = load i8, ptr %148, align 1, !tbaa !26
  %150 = load ptr, ptr %11, align 8, !tbaa !3
  %151 = getelementptr inbounds nuw %struct._lv_draw_sw_mask_fade_param_t, ptr %150, i32 0, i32 1
  %152 = getelementptr inbounds nuw %struct.anon.2, ptr %151, i32 0, i32 4
  %153 = load i8, ptr %152, align 1, !tbaa !78
  %154 = call zeroext i8 @mask_mix(i8 noundef zeroext %149, i8 noundef zeroext %153)
  %155 = load ptr, ptr %7, align 8, !tbaa !3
  %156 = load i32, ptr %13, align 4, !tbaa !7
  %157 = sext i32 %156 to i64
  %158 = getelementptr inbounds i8, ptr %155, i64 %157
  store i8 %154, ptr %158, align 1, !tbaa !26
  br label %159

159:                                              ; preds = %144
  %160 = load i32, ptr %13, align 4, !tbaa !7
  %161 = add nsw i32 %160, 1
  store i32 %161, ptr %13, align 4, !tbaa !7
  br label %140, !llvm.loop !88

162:                                              ; preds = %140
  store i32 2, ptr %6, align 4
  store i32 1, ptr %14, align 4
  br label %228

163:                                              ; preds = %132
  call void @llvm.lifetime.start.p0(i64 2, ptr %15) #4
  %164 = load ptr, ptr %11, align 8, !tbaa !3
  %165 = getelementptr inbounds nuw %struct._lv_draw_sw_mask_fade_param_t, ptr %164, i32 0, i32 1
  %166 = getelementptr inbounds nuw %struct.anon.2, ptr %165, i32 0, i32 4
  %167 = load i8, ptr %166, align 1, !tbaa !78
  %168 = zext i8 %167 to i32
  %169 = load ptr, ptr %11, align 8, !tbaa !3
  %170 = getelementptr inbounds nuw %struct._lv_draw_sw_mask_fade_param_t, ptr %169, i32 0, i32 1
  %171 = getelementptr inbounds nuw %struct.anon.2, ptr %170, i32 0, i32 3
  %172 = load i8, ptr %171, align 8, !tbaa !75
  %173 = zext i8 %172 to i32
  %174 = sub nsw i32 %168, %173
  %175 = trunc i32 %174 to i16
  store i16 %175, ptr %15, align 2, !tbaa !42
  call void @llvm.lifetime.start.p0(i64 4, ptr %16) #4
  %176 = load ptr, ptr %11, align 8, !tbaa !3
  %177 = getelementptr inbounds nuw %struct._lv_draw_sw_mask_fade_param_t, ptr %176, i32 0, i32 1
  %178 = getelementptr inbounds nuw %struct.anon.2, ptr %177, i32 0, i32 2
  %179 = load i32, ptr %178, align 4, !tbaa !80
  %180 = load ptr, ptr %11, align 8, !tbaa !3
  %181 = getelementptr inbounds nuw %struct._lv_draw_sw_mask_fade_param_t, ptr %180, i32 0, i32 1
  %182 = getelementptr inbounds nuw %struct.anon.2, ptr %181, i32 0, i32 1
  %183 = load i32, ptr %182, align 8, !tbaa !79
  %184 = sub nsw i32 %179, %183
  %185 = add nsw i32 %184, 1
  store i32 %185, ptr %16, align 4, !tbaa !7
  call void @llvm.lifetime.start.p0(i64 1, ptr %17) #4
  %186 = load i32, ptr %9, align 4, !tbaa !7
  %187 = load ptr, ptr %11, align 8, !tbaa !3
  %188 = getelementptr inbounds nuw %struct._lv_draw_sw_mask_fade_param_t, ptr %187, i32 0, i32 1
  %189 = getelementptr inbounds nuw %struct.anon.2, ptr %188, i32 0, i32 1
  %190 = load i32, ptr %189, align 8, !tbaa !79
  %191 = sub nsw i32 %186, %190
  %192 = load i16, ptr %15, align 2, !tbaa !42
  %193 = sext i16 %192 to i32
  %194 = mul nsw i32 %191, %193
  %195 = ashr i32 %194, 8
  %196 = load i32, ptr %16, align 4, !tbaa !7
  %197 = sdiv i32 %195, %196
  %198 = trunc i32 %197 to i8
  store i8 %198, ptr %17, align 1, !tbaa !26
  %199 = load ptr, ptr %11, align 8, !tbaa !3
  %200 = getelementptr inbounds nuw %struct._lv_draw_sw_mask_fade_param_t, ptr %199, i32 0, i32 1
  %201 = getelementptr inbounds nuw %struct.anon.2, ptr %200, i32 0, i32 3
  %202 = load i8, ptr %201, align 8, !tbaa !75
  %203 = zext i8 %202 to i32
  %204 = load i8, ptr %17, align 1, !tbaa !26
  %205 = zext i8 %204 to i32
  %206 = add nsw i32 %205, %203
  %207 = trunc i32 %206 to i8
  store i8 %207, ptr %17, align 1, !tbaa !26
  store i32 0, ptr %13, align 4, !tbaa !7
  br label %208

208:                                              ; preds = %224, %163
  %209 = load i32, ptr %13, align 4, !tbaa !7
  %210 = load i32, ptr %10, align 4, !tbaa !7
  %211 = icmp slt i32 %209, %210
  br i1 %211, label %212, label %227

212:                                              ; preds = %208
  %213 = load ptr, ptr %7, align 8, !tbaa !3
  %214 = load i32, ptr %13, align 4, !tbaa !7
  %215 = sext i32 %214 to i64
  %216 = getelementptr inbounds i8, ptr %213, i64 %215
  %217 = load i8, ptr %216, align 1, !tbaa !26
  %218 = load i8, ptr %17, align 1, !tbaa !26
  %219 = call zeroext i8 @mask_mix(i8 noundef zeroext %217, i8 noundef zeroext %218)
  %220 = load ptr, ptr %7, align 8, !tbaa !3
  %221 = load i32, ptr %13, align 4, !tbaa !7
  %222 = sext i32 %221 to i64
  %223 = getelementptr inbounds i8, ptr %220, i64 %222
  store i8 %219, ptr %223, align 1, !tbaa !26
  br label %224

224:                                              ; preds = %212
  %225 = load i32, ptr %13, align 4, !tbaa !7
  %226 = add nsw i32 %225, 1
  store i32 %226, ptr %13, align 4, !tbaa !7
  br label %208, !llvm.loop !89

227:                                              ; preds = %208
  store i32 2, ptr %6, align 4
  store i32 1, ptr %14, align 4
  call void @llvm.lifetime.end.p0(i64 1, ptr %17) #4
  call void @llvm.lifetime.end.p0(i64 4, ptr %16) #4
  call void @llvm.lifetime.end.p0(i64 2, ptr %15) #4
  br label %228

228:                                              ; preds = %227, %162, %131
  call void @llvm.lifetime.end.p0(i64 4, ptr %13) #4
  br label %229

229:                                              ; preds = %228, %54, %45, %34, %25
  %230 = load i32, ptr %6, align 4
  ret i32 %230
}