; Function Attrs: nofree norecurse nosync nounwind memory(argmem: readwrite) uwtable
define internal range(i32 1, 3) i32 @lv_draw_mask_fade(ptr nocapture noundef %0, i32 noundef %1, i32 noundef %2, i32 noundef %3, ptr nocapture noundef readonly %4) #4 {
  %6 = getelementptr inbounds nuw i8, ptr %4, i64 16
  %7 = getelementptr inbounds nuw i8, ptr %4, i64 20
  %8 = load i32, ptr %7, align 4, !tbaa !76
  %9 = icmp slt i32 %2, %8
  br i1 %9, label %.loopexit, label %10

10:                                               ; preds = %5
  %11 = getelementptr inbounds nuw i8, ptr %4, i64 28
  %12 = load i32, ptr %11, align 4, !tbaa !77
  %13 = icmp sgt i32 %2, %12
  br i1 %13, label %.loopexit, label %14

14:                                               ; preds = %10
  %15 = add nsw i32 %3, %1
  %16 = load i32, ptr %6, align 8, !tbaa !78
  %17 = icmp slt i32 %15, %16
  br i1 %17, label %.loopexit, label %18

18:                                               ; preds = %14
  %19 = getelementptr inbounds nuw i8, ptr %4, i64 24
  %20 = load i32, ptr %19, align 8, !tbaa !79
  %21 = icmp sgt i32 %1, %20
  br i1 %21, label %.loopexit, label %22

22:                                               ; preds = %18
  %23 = icmp sgt i32 %15, %20
  %.neg93 = add i32 %20, 1
  %.neg94 = sub i32 %.neg93, %15
  %.neg95 = select i1 %23, i32 %.neg94, i32 0
  %24 = icmp slt i32 %1, %16
  %25 = sub i32 %16, %1
  %26 = select i1 %24, i32 %25, i32 0
  %.neg80 = sub i32 %3, %26
  %.166 = add i32 %.neg80, %.neg95
  %.062.idx = sext i32 %26 to i64
  %.062 = getelementptr i8, ptr %0, i64 %.062.idx
  %27 = getelementptr inbounds nuw i8, ptr %4, i64 32
  %28 = load i32, ptr %27, align 8, !tbaa !72
  %.not = icmp sgt i32 %2, %28
  br i1 %.not, label %47, label %.preheader83

.preheader83:                                     ; preds = %22
  %29 = icmp sgt i32 %.166, 0
  br i1 %29, label %.lr.ph, label %.loopexit

.lr.ph:                                           ; preds = %.preheader83
  %30 = getelementptr inbounds nuw i8, ptr %4, i64 40
  %31 = zext nneg i32 %.166 to i64
  br label %32

32:                                               ; preds = %.lr.ph, %mask_mix.exit
  %indvars.iv = phi i64 [ 0, %.lr.ph ], [ %indvars.iv.next, %mask_mix.exit ]
  %33 = getelementptr inbounds i8, ptr %.062, i64 %indvars.iv
  %34 = load i8, ptr %33, align 1, !tbaa !34
  %35 = load i8, ptr %30, align 8, !tbaa !68
  %36 = zext i8 %35 to i32
  %37 = icmp ugt i8 %35, -4
  br i1 %37, label %mask_mix.exit, label %38

38:                                               ; preds = %32
  %39 = icmp ult i8 %35, 3
  br i1 %39, label %mask_mix.exit, label %40

40:                                               ; preds = %38
  %41 = zext i8 %34 to i32
  %42 = mul nuw nsw i32 %41, 32897
  %43 = mul nuw nsw i32 %42, %36
  %44 = lshr i32 %43, 23
  %45 = trunc nuw i32 %44 to i8
  br label %mask_mix.exit

mask_mix.exit:                                    ; preds = %32, %38, %40
  %.0.i = phi i8 [ %45, %40 ], [ %34, %32 ], [ 0, %38 ]
  store i8 %.0.i, ptr %33, align 1, !tbaa !34
  %indvars.iv.next = add nuw nsw i64 %indvars.iv, 1
  %46 = icmp samesign ult i64 %indvars.iv.next, %31
  br i1 %46, label %32, label %.loopexit, !llvm.loop !80

47:                                               ; preds = %22
  %48 = getelementptr inbounds nuw i8, ptr %4, i64 36
  %49 = load i32, ptr %48, align 4, !tbaa !73
  %.not74 = icmp slt i32 %2, %49
  %50 = icmp sgt i32 %.166, 0
  br i1 %.not74, label %68, label %.preheader

.preheader:                                       ; preds = %47
  br i1 %50, label %.lr.ph87, label %.loopexit

.lr.ph87:                                         ; preds = %.preheader
  %51 = getelementptr inbounds nuw i8, ptr %4, i64 41
  %52 = zext nneg i32 %.166 to i64
  br label %53

53:                                               ; preds = %.lr.ph87, %mask_mix.exit76
  %indvars.iv101 = phi i64 [ 0, %.lr.ph87 ], [ %indvars.iv.next102, %mask_mix.exit76 ]
  %54 = getelementptr inbounds i8, ptr %.062, i64 %indvars.iv101
  %55 = load i8, ptr %54, align 1, !tbaa !34
  %56 = load i8, ptr %51, align 1, !tbaa !71
  %57 = zext i8 %56 to i32
  %58 = icmp ugt i8 %56, -4
  br i1 %58, label %mask_mix.exit76, label %59

59:                                               ; preds = %53
  %60 = icmp ult i8 %56, 3
  br i1 %60, label %mask_mix.exit76, label %61

61:                                               ; preds = %59
  %62 = zext i8 %55 to i32
  %63 = mul nuw nsw i32 %62, 32897
  %64 = mul nuw nsw i32 %63, %57
  %65 = lshr i32 %64, 23
  %66 = trunc nuw i32 %65 to i8
  br label %mask_mix.exit76

mask_mix.exit76:                                  ; preds = %53, %59, %61
  %.0.i75 = phi i8 [ %66, %61 ], [ %55, %53 ], [ 0, %59 ]
  store i8 %.0.i75, ptr %54, align 1, !tbaa !34
  %indvars.iv.next102 = add nuw nsw i64 %indvars.iv101, 1
  %67 = icmp samesign ult i64 %indvars.iv.next102, %52
  br i1 %67, label %53, label %.loopexit, !llvm.loop !81

68:                                               ; preds = %47
  br i1 %50, label %.lr.ph89, label %.loopexit

.lr.ph89:                                         ; preds = %68
  %69 = getelementptr inbounds nuw i8, ptr %4, i64 41
  %70 = load i8, ptr %69, align 1, !tbaa !71
  %71 = zext i8 %70 to i32
  %72 = getelementptr inbounds nuw i8, ptr %4, i64 40
  %73 = load i8, ptr %72, align 8, !tbaa !68
  %74 = zext i8 %73 to i32
  %75 = sub nsw i32 %71, %74
  %76 = sub nsw i32 %2, %28
  %77 = mul nsw i32 %75, %76
  %78 = ashr i32 %77, 8
  %reass.sub = sub i32 %49, %28
  %79 = add i32 %reass.sub, 1
  %80 = sdiv i32 %78, %79
  %81 = trunc i32 %80 to i8
  %82 = add i8 %73, %81
  %83 = zext i8 %82 to i32
  %84 = icmp ugt i8 %82, -4
  %85 = mul nuw nsw i32 %83, 32897
  br i1 %84, label %.loopexit, label %.lr.ph89.split

.lr.ph89.split:                                   ; preds = %.lr.ph89
  %86 = icmp ult i8 %82, 3
  %87 = zext nneg i32 %.166 to i64
  br i1 %86, label %mask_mix.exit78.us91.preheader, label %mask_mix.exit78

mask_mix.exit78.us91.preheader:                   ; preds = %.lr.ph89.split
  tail call void @llvm.memset.p0.i64(ptr align 1 %.062, i8 0, i64 %87, i1 false), !tbaa !34
  br label %.loopexit

mask_mix.exit78:                                  ; preds = %.lr.ph89.split, %mask_mix.exit78
  %indvars.iv104 = phi i64 [ %indvars.iv.next105, %mask_mix.exit78 ], [ 0, %.lr.ph89.split ]
  %88 = getelementptr inbounds i8, ptr %.062, i64 %indvars.iv104
  %89 = load i8, ptr %88, align 1, !tbaa !34
  %90 = zext i8 %89 to i32
  %91 = mul nuw nsw i32 %85, %90
  %92 = lshr i32 %91, 23
  %93 = trunc nuw i32 %92 to i8
  store i8 %93, ptr %88, align 1, !tbaa !34
  %indvars.iv.next105 = add nuw nsw i64 %indvars.iv104, 1
  %94 = icmp samesign ult i64 %indvars.iv.next105, %87
  br i1 %94, label %mask_mix.exit78, label %.loopexit, !llvm.loop !82

.loopexit:                                        ; preds = %mask_mix.exit, %mask_mix.exit76, %mask_mix.exit78, %.lr.ph89, %mask_mix.exit78.us91.preheader, %.preheader83, %.preheader, %68, %18, %14, %10, %5
  %.0 = phi i32 [ 1, %5 ], [ 1, %10 ], [ 1, %14 ], [ 1, %18 ], [ 2, %68 ], [ 2, %.preheader ], [ 2, %.preheader83 ], [ 2, %mask_mix.exit78.us91.preheader ], [ 2, %.lr.ph89 ], [ 2, %mask_mix.exit78 ], [ 2, %mask_mix.exit76 ], [ 2, %mask_mix.exit ]
  ret i32 %.0
}